; Function Attrs: nounwind uwtable
define dso_local void @CommitTransaction(ptr noundef %0) local_unnamed_addr #0 {
  %2 = getelementptr inbounds nuw i8, ptr %0, i64 440
  %3 = load ptr, ptr %2, align 8
  %4 = tail call ptr @PQexec(ptr noundef %3, ptr noundef nonnull @.str.21) #11
  %5 = tail call i32 @PQresultStatus(ptr noundef %4) #11
  switch i32 %5, label %8 [
    i32 1, label %ExecuteSqlCommand.exit
    i32 2, label %ExecuteSqlCommand.exit
    i32 0, label %ExecuteSqlCommand.exit
    i32 4, label %6
  ]

6:                                                ; preds = %1
  %7 = getelementptr inbounds nuw i8, ptr %0, i64 464
  store i8 1, ptr %7, align 8
  br label %ExecuteSqlCommand.exit

8:                                                ; preds = %1
  %9 = tail call ptr @PQerrorMessage(ptr noundef %3) #11
  tail call void (ptr, ptr, ...) @warn_or_exit_horribly(ptr noundef nonnull %0, ptr noundef nonnull @.str.38, ptr noundef nonnull @.str.22, ptr noundef %9, ptr noundef nonnull @.str.21) #11
  br label %ExecuteSqlCommand.exit

ExecuteSqlCommand.exit:                           ; preds = %1, %1, %1, %6, %8
  tail call void @PQclear(ptr noundef %4) #11
  ret void
}